target datalayout = "e-m:e-p270:32:32-p271:32:32-p272:64:64-i64:64-i128:128-f80:128-n8:16:32:64-S128"
target triple = "x86_64-pc-linux-gnu"

%struct._object = type { %union.anon, ptr }
%union.anon = type { i64 }
%struct.binascii_state = type { ptr, ptr }
%struct.Py_buffer = type { ptr, ptr, i64, i64, i32, i32, ptr, ptr, ptr, ptr, ptr }
%struct.PyVarObject = type { %struct._object, i64 }
%struct.PyBytesObject = type { %struct.PyVarObject, i64, [1 x i8] }
%struct.anon = type { i32, i32 }

@.str.16 = private unnamed_addr constant [13 x i8] c"Illegal char\00", align 1
@.str.17 = private unnamed_addr constant [17 x i8] c"Trailing garbage\00", align 1

; Function Attrs: alwaysinline nounwind uwtable
define internal i32 @_Py_IsImmortal(ptr noundef %0) #5 {
  %2 = alloca ptr, align 8
  store ptr %0, ptr %2, align 8, !tbaa !3
  %3 = load ptr, ptr %2, align 8, !tbaa !3
  %4 = getelementptr inbounds nuw %struct._object, ptr %3, i32 0, i32 0
  %5 = getelementptr inbounds nuw %struct.anon, ptr %4, i32 0, i32 0
  %6 = load i32, ptr %5, align 8, !tbaa !36
  %7 = icmp slt i32 %6, 0
  %8 = zext i1 %7 to i32
  ret i32 %8
}

; Function Attrs: alwaysinline nounwind uwtable
define internal void @Py_DECREF(ptr noundef %0) #5 {
  %2 = alloca ptr, align 8
  store ptr %0, ptr %2, align 8, !tbaa !3
  %3 = load ptr, ptr %2, align 8, !tbaa !3
  %4 = call i32 @_Py_IsImmortal(ptr noundef %3)
  %5 = icmp ne i32 %4, 0
  br i1 %5, label %6, label %7

6:                                                ; preds = %1
  br label %16

7:                                                ; preds = %1
  %8 = load ptr, ptr %2, align 8, !tbaa !3
  %9 = getelementptr inbounds nuw %struct._object, ptr %8, i32 0, i32 0
  %10 = getelementptr inbounds nuw %struct.anon, ptr %9, i32 0, i32 0
  %11 = load i32, ptr %10, align 8, !tbaa !36
  %12 = add i32 %11, -1
  store i32 %12, ptr %10, align 8, !tbaa !36
  %13 = icmp eq i32 %12, 0
  br i1 %13, label %14, label %16

14:                                               ; preds = %7
  %15 = load ptr, ptr %2, align 8, !tbaa !3
  call void @_Py_Dealloc(ptr noundef %15)
  br label %16

16:                                               ; preds = %6, %14, %7
  ret void
}

; Function Attrs: inlinehint nounwind uwtable
define internal ptr @get_binascii_state(ptr noundef %0) #4 {
  %2 = alloca ptr, align 8
  store ptr %0, ptr %2, align 8, !tbaa !3
  %3 = load ptr, ptr %2, align 8, !tbaa !3
  %4 = call ptr @PyModule_GetState(ptr noundef %3)
  ret ptr %4
}

; Function Attrs: inlinehint nounwind uwtable
define internal ptr @PyBytes_AS_STRING(ptr noundef %0) #4 {
  %2 = alloca ptr, align 8
  store ptr %0, ptr %2, align 8, !tbaa !3
  %3 = load ptr, ptr %2, align 8, !tbaa !3
  %4 = getelementptr inbounds nuw %struct.PyBytesObject, ptr %3, i32 0, i32 2
  %5 = getelementptr inbounds [1 x i8], ptr %4, i64 0, i64 0
  ret ptr %5
}

; Function Attrs: nounwind uwtable
define internal ptr @binascii_a2b_uu_impl(ptr noundef %0, ptr noundef %1) #0 {
  %3 = alloca ptr, align 8
  %4 = alloca ptr, align 8
  %5 = alloca ptr, align 8
  %6 = alloca ptr, align 8
  %7 = alloca ptr, align 8
  %8 = alloca i32, align 4
  %9 = alloca i8, align 1
  %10 = alloca i32, align 4
  %11 = alloca ptr, align 8
  %12 = alloca i64, align 8
  %13 = alloca i64, align 8
  %14 = alloca ptr, align 8
  %15 = alloca i32, align 4
  store ptr %0, ptr %4, align 8, !tbaa !3
  store ptr %1, ptr %5, align 8, !tbaa !8
  call void @llvm.lifetime.start.p0(i64 8, ptr %6) #7
  call void @llvm.lifetime.start.p0(i64 8, ptr %7) #7
  call void @llvm.lifetime.start.p0(i64 4, ptr %8) #7
  store i32 0, ptr %8, align 4, !tbaa !13
  call void @llvm.lifetime.start.p0(i64 1, ptr %9) #7
  call void @llvm.lifetime.start.p0(i64 4, ptr %10) #7
  store i32 0, ptr %10, align 4, !tbaa !13
  call void @llvm.lifetime.start.p0(i64 8, ptr %11) #7
  call void @llvm.lifetime.start.p0(i64 8, ptr %12) #7
  call void @llvm.lifetime.start.p0(i64 8, ptr %13) #7
  call void @llvm.lifetime.start.p0(i64 8, ptr %14) #7
  %16 = load ptr, ptr %5, align 8, !tbaa !8
  %17 = getelementptr inbounds nuw %struct.Py_buffer, ptr %16, i32 0, i32 0
  %18 = load ptr, ptr %17, align 8, !tbaa !24
  store ptr %18, ptr %6, align 8, !tbaa !35
  %19 = load ptr, ptr %5, align 8, !tbaa !8
  %20 = getelementptr inbounds nuw %struct.Py_buffer, ptr %19, i32 0, i32 2
  %21 = load i64, ptr %20, align 8, !tbaa !25
  store i64 %21, ptr %12, align 8, !tbaa !23
  %22 = load ptr, ptr %6, align 8, !tbaa !35
  %23 = getelementptr i8, ptr %22, i32 1
  store ptr %23, ptr %6, align 8, !tbaa !35
  %24 = load i8, ptr %22, align 1, !tbaa !36
  %25 = zext i8 %24 to i32
  %26 = sub i32 %25, 32
  %27 = and i32 %26, 63
  %28 = sext i32 %27 to i64
  store i64 %28, ptr %13, align 8, !tbaa !23
  %29 = load i64, ptr %12, align 8, !tbaa !23
  %30 = add i64 %29, -1
  store i64 %30, ptr %12, align 8, !tbaa !23
  %31 = load i64, ptr %13, align 8, !tbaa !23
  %32 = call ptr @PyBytes_FromStringAndSize(ptr noundef null, i64 noundef %31)
  store ptr %32, ptr %11, align 8, !tbaa !3
  %33 = icmp eq ptr %32, null
  br i1 %33, label %34, label %35

34:                                               ; preds = %2
  store ptr null, ptr %3, align 8
  store i32 1, ptr %15, align 4
  br label %159

35:                                               ; preds = %2
  %36 = load ptr, ptr %11, align 8, !tbaa !3
  %37 = call ptr @PyBytes_AS_STRING(ptr noundef %36)
  store ptr %37, ptr %7, align 8, !tbaa !35
  br label %38

38:                                               ; preds = %116, %35
  %39 = load i64, ptr %13, align 8, !tbaa !23
  %40 = icmp sgt i64 %39, 0
  br i1 %40, label %41, label %121

41:                                               ; preds = %38
  %42 = load i64, ptr %12, align 8, !tbaa !23
  %43 = icmp sgt i64 %42, 0
  br i1 %43, label %44, label %48

44:                                               ; preds = %41
  %45 = load ptr, ptr %6, align 8, !tbaa !35
  %46 = load i8, ptr %45, align 1, !tbaa !36
  %47 = zext i8 %46 to i32
  br label %49

48:                                               ; preds = %41
  br label %49

49:                                               ; preds = %48, %44
  %50 = phi i32 [ %47, %44 ], [ 0, %48 ]
  %51 = trunc i32 %50 to i8
  store i8 %51, ptr %9, align 1, !tbaa !36
  %52 = load i8, ptr %9, align 1, !tbaa !36
  %53 = zext i8 %52 to i32
  %54 = icmp eq i32 %53, 10
  br i1 %54, label %62, label %55

55:                                               ; preds = %49
  %56 = load i8, ptr %9, align 1, !tbaa !36
  %57 = zext i8 %56 to i32
  %58 = icmp eq i32 %57, 13
  br i1 %58, label %62, label %59

59:                                               ; preds = %55
  %60 = load i64, ptr %12, align 8, !tbaa !23
  %61 = icmp sle i64 %60, 0
  br i1 %61, label %62, label %63

62:                                               ; preds = %59, %55, %49
  store i8 0, ptr %9, align 1, !tbaa !36
  br label %88

63:                                               ; preds = %59
  %64 = load i8, ptr %9, align 1, !tbaa !36
  %65 = zext i8 %64 to i32
  %66 = icmp slt i32 %65, 32
  br i1 %66, label %71, label %67

67:                                               ; preds = %63
  %68 = load i8, ptr %9, align 1, !tbaa !36
  %69 = zext i8 %68 to i32
  %70 = icmp sgt i32 %69, 96
  br i1 %70, label %71, label %82

71:                                               ; preds = %67, %63
  %72 = load ptr, ptr %4, align 8, !tbaa !3
  %73 = call ptr @get_binascii_state(ptr noundef %72)
  store ptr %73, ptr %14, align 8, !tbaa !9
  %74 = load ptr, ptr %14, align 8, !tbaa !9
  %75 = icmp eq ptr %74, null
  br i1 %75, label %76, label %77

76:                                               ; preds = %71
  store ptr null, ptr %3, align 8
  store i32 1, ptr %15, align 4
  br label %159

77:                                               ; preds = %71
  %78 = load ptr, ptr %14, align 8, !tbaa !9
  %79 = getelementptr inbounds nuw %struct.binascii_state, ptr %78, i32 0, i32 0
  %80 = load ptr, ptr %79, align 8, !tbaa !11
  call void @PyErr_SetString(ptr noundef %80, ptr noundef @.str.16)
  %81 = load ptr, ptr %11, align 8, !tbaa !3
  call void @Py_DECREF(ptr noundef %81)
  store ptr null, ptr %3, align 8
  store i32 1, ptr %15, align 4
  br label %159

82:                                               ; preds = %67
  %83 = load i8, ptr %9, align 1, !tbaa !36
  %84 = zext i8 %83 to i32
  %85 = sub i32 %84, 32
  %86 = and i32 %85, 63
  %87 = trunc i32 %86 to i8
  store i8 %87, ptr %9, align 1, !tbaa !36
  br label %88

88:                                               ; preds = %82, %62
  %89 = load i32, ptr %10, align 4, !tbaa !13
  %90 = shl i32 %89, 6
  %91 = load i8, ptr %9, align 1, !tbaa !36
  %92 = zext i8 %91 to i32
  %93 = or i32 %90, %92
  store i32 %93, ptr %10, align 4, !tbaa !13
  %94 = load i32, ptr %8, align 4, !tbaa !13
  %95 = add i32 %94, 6
  store i32 %95, ptr %8, align 4, !tbaa !13
  %96 = load i32, ptr %8, align 4, !tbaa !13
  %97 = icmp sge i32 %96, 8
  br i1 %97, label %98, label %115

98:                                               ; preds = %88
  %99 = load i32, ptr %8, align 4, !tbaa !13
  %100 = sub i32 %99, 8
  store i32 %100, ptr %8, align 4, !tbaa !13
  %101 = load i32, ptr %10, align 4, !tbaa !13
  %102 = load i32, ptr %8, align 4, !tbaa !13
  %103 = lshr i32 %101, %102
  %104 = and i32 %103, 255
  %105 = trunc i32 %104 to i8
  %106 = load ptr, ptr %7, align 8, !tbaa !35
  %107 = getelementptr i8, ptr %106, i32 1
  store ptr %107, ptr %7, align 8, !tbaa !35
  store i8 %105, ptr %106, align 1, !tbaa !36
  %108 = load i32, ptr %8, align 4, !tbaa !13
  %109 = shl i32 1, %108
  %110 = sub i32 %109, 1
  %111 = load i32, ptr %10, align 4, !tbaa !13
  %112 = and i32 %111, %110
  store i32 %112, ptr %10, align 4, !tbaa !13
  %113 = load i64, ptr %13, align 8, !tbaa !23
  %114 = add i64 %113, -1
  store i64 %114, ptr %13, align 8, !tbaa !23
  br label %115

115:                                              ; preds = %98, %88
  br label %116

116:                                              ; preds = %115
  %117 = load i64, ptr %12, align 8, !tbaa !23
  %118 = add i64 %117, -1
  store i64 %118, ptr %12, align 8, !tbaa !23
  %119 = load ptr, ptr %6, align 8, !tbaa !35
  %120 = getelementptr i8, ptr %119, i32 1
  store ptr %120, ptr %6, align 8, !tbaa !35
  br label %38, !llvm.loop !37

121:                                              ; preds = %38
  br label %122

122:                                              ; preds = %156, %121
  %123 = load i64, ptr %12, align 8, !tbaa !23
  %124 = add i64 %123, -1
  store i64 %124, ptr %12, align 8, !tbaa !23
  %125 = icmp sgt i64 %123, 0
  br i1 %125, label %126, label %157

126:                                              ; preds = %122
  %127 = load ptr, ptr %6, align 8, !tbaa !35
  %128 = getelementptr i8, ptr %127, i32 1
  store ptr %128, ptr %6, align 8, !tbaa !35
  %129 = load i8, ptr %127, align 1, !tbaa !36
  store i8 %129, ptr %9, align 1, !tbaa !36
  %130 = load i8, ptr %9, align 1, !tbaa !36
  %131 = zext i8 %130 to i32
  %132 = icmp ne i32 %131, 32
  br i1 %132, label %133, label %156

133:                                              ; preds = %126
  %134 = load i8, ptr %9, align 1, !tbaa !36
  %135 = zext i8 %134 to i32
  %136 = icmp ne i32 %135, 96
  br i1 %136, label %137, label %156

137:                                              ; preds = %133
  %138 = load i8, ptr %9, align 1, !tbaa !36
  %139 = zext i8 %138 to i32
  %140 = icmp ne i32 %139, 10
  br i1 %140, label %141, label %156

141:                                              ; preds = %137
  %142 = load i8, ptr %9, align 1, !tbaa !36
  %143 = zext i8 %142 to i32
  %144 = icmp ne i32 %143, 13
  br i1 %144, label %145, label %156

145:                                              ; preds = %141
  %146 = load ptr, ptr %4, align 8, !tbaa !3
  %147 = call ptr @get_binascii_state(ptr noundef %146)
  store ptr %147, ptr %14, align 8, !tbaa !9
  %148 = load ptr, ptr %14, align 8, !tbaa !9
  %149 = icmp eq ptr %148, null
  br i1 %149, label %150, label %151

150:                                              ; preds = %145
  store ptr null, ptr %3, align 8
  store i32 1, ptr %15, align 4
  br label %159

151:                                              ; preds = %145
  %152 = load ptr, ptr %14, align 8, !tbaa !9
  %153 = getelementptr inbounds nuw %struct.binascii_state, ptr %152, i32 0, i32 0
  %154 = load ptr, ptr %153, align 8, !tbaa !11
  call void @PyErr_SetString(ptr noundef %154, ptr noundef @.str.17)
  %155 = load ptr, ptr %11, align 8, !tbaa !3
  call void @Py_DECREF(ptr noundef %155)
  store ptr null, ptr %3, align 8
  store i32 1, ptr %15, align 4
  br label %159

156:                                              ; preds = %141, %137, %133, %126
  br label %122, !llvm.loop !39

157:                                              ; preds = %122
  %158 = load ptr, ptr %11, align 8, !tbaa !3
  store ptr %158, ptr %3, align 8
  store i32 1, ptr %15, align 4
  br label %159

159:                                              ; preds = %157, %151, %150, %77, %76, %34
  call void @llvm.lifetime.end.p0(i64 8, ptr %14) #7
  call void @llvm.lifetime.end.p0(i64 8, ptr %13) #7
  call void @llvm.lifetime.end.p0(i64 8, ptr %12) #7
  call void @llvm.lifetime.end.p0(i64 8, ptr %11) #7
  call void @llvm.lifetime.end.p0(i64 4, ptr %10) #7
  call void @llvm.lifetime.end.p0(i64 1, ptr %9) #7
  call void @llvm.lifetime.end.p0(i64 4, ptr %8) #7
  call void @llvm.lifetime.end.p0(i64 8, ptr %7) #7
  call void @llvm.lifetime.end.p0(i64 8, ptr %6) #7
  %160 = load ptr, ptr %3, align 8
  ret ptr %160
}

; Function Attrs: nounwind uwtable
define internal ptr @binascii_a2b_uu(ptr noundef %0, ptr noundef %1) #0 {
  %3 = alloca ptr, align 8
  %4 = alloca ptr, align 8
  %5 = alloca ptr, align 8
  %6 = alloca %struct.Py_buffer, align 8
  store ptr %0, ptr %3, align 8, !tbaa !3
  store ptr %1, ptr %4, align 8, !tbaa !3
  call void @llvm.lifetime.start.p0(i64 8, ptr %5) #7
  store ptr null, ptr %5, align 8, !tbaa !3
  call void @llvm.lifetime.start.p0(i64 80, ptr %6) #7
  call void @llvm.memset.p0.i64(ptr align 8 %6, i8 0, i64 80, i1 false)
  %7 = load ptr, ptr %4, align 8, !tbaa !3
  %8 = call i32 @ascii_buffer_converter(ptr noundef %7, ptr noundef %6)
  %9 = icmp ne i32 %8, 0
  br i1 %9, label %11, label %10

10:                                               ; preds = %2
  br label %14

11:                                               ; preds = %2
  %12 = load ptr, ptr %3, align 8, !tbaa !3
  %13 = call ptr @binascii_a2b_uu_impl(ptr noundef %12, ptr noundef %6)
  store ptr %13, ptr %5, align 8, !tbaa !3
  br label %14

14:                                               ; preds = %11, %10
  %15 = getelementptr inbounds nuw %struct.Py_buffer, ptr %6, i32 0, i32 1
  %16 = load ptr, ptr %15, align 8, !tbaa !18
  %17 = icmp ne ptr %16, null
  br i1 %17, label %18, label %19

18:                                               ; preds = %14
  call void @PyBuffer_Release(ptr noundef %6)
  br label %19

19:                                               ; preds = %18, %14
  %20 = load ptr, ptr %5, align 8, !tbaa !3
  call void @llvm.lifetime.end.p0(i64 80, ptr %6) #7
  call void @llvm.lifetime.end.p0(i64 8, ptr %5) #7
  ret ptr %20
}