; Function Attrs: nounwind uwtable
define internal ptr @binascii_a2b_uu(ptr noundef %0, ptr noundef %1) #0 {
  %3 = alloca %struct.Py_buffer, align 8
  call void @llvm.lifetime.start.p0(i64 80, ptr nonnull %3) #5
  call void @llvm.memset.p0.i64(ptr noundef nonnull align 8 dereferenceable(80) %3, i8 0, i64 80, i1 false)
  %4 = call fastcc i32 @ascii_buffer_converter(ptr noundef %1, ptr noundef %3)
  %.not = icmp eq i32 %4, 0
  br i1 %.not, label %binascii_a2b_uu_impl.exit, label %5

5:                                                ; preds = %2
  %.val = load ptr, ptr %3, align 8, !tbaa !12
  %6 = getelementptr inbounds nuw i8, ptr %3, i64 16
  %.val4 = load i64, ptr %6, align 8, !tbaa !18
  %7 = load i8, ptr %.val, align 1, !tbaa !11
  %8 = and i8 %7, 63
  %9 = xor i8 %8, 32
  %10 = zext nneg i8 %9 to i64
  %11 = call ptr @PyBytes_FromStringAndSize(ptr noundef null, i64 noundef %10) #5
  %12 = icmp eq ptr %11, null
  br i1 %12, label %binascii_a2b_uu_impl.exit, label %13

13:                                               ; preds = %5
  %.0693.i = getelementptr i8, ptr %.val, i64 1
  %.0594.i = add i64 %.val4, -1
  %.not.i = icmp eq i8 %8, 32
  br i1 %.not.i, label %.preheader.i, label %.lr.ph.preheader.i

.lr.ph.preheader.i:                               ; preds = %13
  %14 = getelementptr inbounds nuw i8, ptr %11, i64 32
  br label %.lr.ph.i

.preheader.i:                                     ; preds = %45, %13
  %.069.lcssa.i = phi ptr [ %.0693.i, %13 ], [ %.069.i, %45 ]
  %.059.lcssa.i = phi i64 [ %.0594.i, %13 ], [ %.059.i, %45 ]
  %15 = icmp sgt i64 %.059.lcssa.i, 0
  br i1 %15, label %.lr.ph14.i, label %binascii_a2b_uu_impl.exit

.lr.ph.i:                                         ; preds = %45, %.lr.ph.preheader.i
  %.05910.i = phi i64 [ %.059.i, %45 ], [ %.0594.i, %.lr.ph.preheader.i ]
  %.0699.i = phi ptr [ %.069.i, %45 ], [ %.0693.i, %.lr.ph.preheader.i ]
  %.08.i = phi i64 [ %.1.i, %45 ], [ %10, %.lr.ph.preheader.i ]
  %.0627.i = phi i32 [ %.163.i, %45 ], [ 0, %.lr.ph.preheader.i ]
  %.0656.i = phi i32 [ %.166.i, %45 ], [ 0, %.lr.ph.preheader.i ]
  %.0675.i = phi ptr [ %.168.i, %45 ], [ %14, %.lr.ph.preheader.i ]
  %16 = icmp sgt i64 %.05910.i, 0
  br i1 %16, label %switch.early.test.i, label %.thread.i

switch.early.test.i:                              ; preds = %.lr.ph.i
  %17 = load i8, ptr %.0699.i, align 1, !tbaa !11
  %18 = zext i8 %17 to i32
  switch i8 %17, label %19 [
    i8 13, label %.thread.i
    i8 10, label %.thread.i
  ]

19:                                               ; preds = %switch.early.test.i
  %20 = add nsw i32 %18, -97
  %or.cond7.i = icmp ult i32 %20, -65
  br i1 %or.cond7.i, label %21, label %30

21:                                               ; preds = %19
  %22 = call ptr @PyModule_GetState(ptr noundef %0) #5
  %23 = icmp eq ptr %22, null
  br i1 %23, label %binascii_a2b_uu_impl.exit, label %24

24:                                               ; preds = %21
  %25 = load ptr, ptr %22, align 8, !tbaa !3
  call void @PyErr_SetString(ptr noundef %25, ptr noundef nonnull @.str.16) #5
  %26 = load i32, ptr %11, align 8, !tbaa !11
  %.not.i.i = icmp sgt i32 %26, -1
  br i1 %.not.i.i, label %27, label %binascii_a2b_uu_impl.exit

27:                                               ; preds = %24
  %28 = add nsw i32 %26, -1
  store i32 %28, ptr %11, align 8, !tbaa !11
  %29 = icmp eq i32 %28, 0
  br i1 %29, label %Py_DECREF.exit.sink.split.i, label %binascii_a2b_uu_impl.exit

30:                                               ; preds = %19
  %31 = and i32 %18, 63
  %32 = xor i32 %31, 32
  br label %.thread.i

.thread.i:                                        ; preds = %30, %switch.early.test.i, %switch.early.test.i, %.lr.ph.i
  %.064.i = phi i32 [ %32, %30 ], [ 0, %switch.early.test.i ], [ 0, %switch.early.test.i ], [ 0, %.lr.ph.i ]
  %33 = shl i32 %.0627.i, 6
  %34 = or i32 %.064.i, %33
  %35 = add nuw nsw i32 %.0656.i, 6
  %36 = icmp sgt i32 %.0656.i, 1
  br i1 %36, label %37, label %45

37:                                               ; preds = %.thread.i
  %38 = add nsw i32 %.0656.i, -2
  %39 = lshr i32 %34, %38
  %40 = trunc i32 %39 to i8
  %41 = getelementptr i8, ptr %.0675.i, i64 1
  store i8 %40, ptr %.0675.i, align 1, !tbaa !11
  %notmask.i = shl nsw i32 -1, %38
  %42 = xor i32 %notmask.i, -1
  %43 = and i32 %34, %42
  %44 = add nsw i64 %.08.i, -1
  br label %45

45:                                               ; preds = %37, %.thread.i
  %.168.i = phi ptr [ %41, %37 ], [ %.0675.i, %.thread.i ]
  %.166.i = phi i32 [ %38, %37 ], [ %35, %.thread.i ]
  %.163.i = phi i32 [ %43, %37 ], [ %34, %.thread.i ]
  %.1.i = phi i64 [ %44, %37 ], [ %.08.i, %.thread.i ]
  %.069.i = getelementptr i8, ptr %.0699.i, i64 1
  %.059.i = add i64 %.05910.i, -1
  %46 = icmp sgt i64 %.1.i, 0
  br i1 %46, label %.lr.ph.i, label %.preheader.i, !llvm.loop !19

.lr.ph14.i:                                       ; preds = %.preheader.i, %.backedge.i
  %.16013.i = phi i64 [ %49, %.backedge.i ], [ %.059.lcssa.i, %.preheader.i ]
  %.17012.i = phi ptr [ %48, %.backedge.i ], [ %.069.lcssa.i, %.preheader.i ]
  %47 = load i8, ptr %.17012.i, align 1, !tbaa !11
  switch i8 %47, label %51 [
    i8 96, label %.backedge.i
    i8 32, label %.backedge.i
    i8 13, label %.backedge.i
    i8 10, label %.backedge.i
  ]

.backedge.i:                                      ; preds = %.lr.ph14.i, %.lr.ph14.i, %.lr.ph14.i, %.lr.ph14.i
  %48 = getelementptr i8, ptr %.17012.i, i64 1
  %49 = add nsw i64 %.16013.i, -1
  %50 = icmp sgt i64 %.16013.i, 1
  br i1 %50, label %.lr.ph14.i, label %binascii_a2b_uu_impl.exit

51:                                               ; preds = %.lr.ph14.i
  %52 = call ptr @PyModule_GetState(ptr noundef %0) #5
  %53 = icmp eq ptr %52, null
  br i1 %53, label %binascii_a2b_uu_impl.exit, label %54

54:                                               ; preds = %51
  %55 = load ptr, ptr %52, align 8, !tbaa !3
  call void @PyErr_SetString(ptr noundef %55, ptr noundef nonnull @.str.17) #5
  %56 = load i32, ptr %11, align 8, !tbaa !11
  %.not.i77.i = icmp sgt i32 %56, -1
  br i1 %.not.i77.i, label %57, label %binascii_a2b_uu_impl.exit

57:                                               ; preds = %54
  %58 = add nsw i32 %56, -1
  store i32 %58, ptr %11, align 8, !tbaa !11
  %59 = icmp eq i32 %58, 0
  br i1 %59, label %Py_DECREF.exit.sink.split.i, label %binascii_a2b_uu_impl.exit

Py_DECREF.exit.sink.split.i:                      ; preds = %57, %27
  call void @_Py_Dealloc(ptr noundef nonnull %11) #5
  br label %binascii_a2b_uu_impl.exit

binascii_a2b_uu_impl.exit:                        ; preds = %.backedge.i, %Py_DECREF.exit.sink.split.i, %57, %54, %51, %27, %24, %21, %.preheader.i, %5, %2
  %.0 = phi ptr [ null, %2 ], [ null, %5 ], [ null, %21 ], [ null, %51 ], [ null, %24 ], [ null, %27 ], [ null, %54 ], [ null, %57 ], [ %11, %.preheader.i ], [ null, %Py_DECREF.exit.sink.split.i ], [ %11, %.backedge.i ]
  %60 = getelementptr inbounds nuw i8, ptr %3, i64 8
  %61 = load ptr, ptr %60, align 8, !tbaa !21
  %.not3 = icmp eq ptr %61, null
  br i1 %.not3, label %63, label %62

62:                                               ; preds = %binascii_a2b_uu_impl.exit
  call void @PyBuffer_Release(ptr noundef nonnull %3) #5
  br label %63

63:                                               ; preds = %62, %binascii_a2b_uu_impl.exit
  call void @llvm.lifetime.end.p0(i64 80, ptr nonnull %3) #5
  ret ptr %.0
}